; Function Attrs: mustprogress nofree norecurse nosync nounwind willreturn memory(argmem: read) uwtable
define hidden i64 @_ZNK2cv5gimpl18FluidUpscaleMapper22linesReadAndNextWindowEii(ptr noundef nonnull readonly align 8 captures(none) dereferenceable(24) %0, i32 noundef %1, i32 noundef %2) unnamed_addr #9 align 2 {
  %4 = getelementptr inbounds nuw i8, ptr %0, i64 16
  %5 = load i32, ptr %4, align 8, !tbaa !183
  %6 = add i32 %5, %1
  %7 = add i32 %2, -1
  %8 = add i32 %7, %6
  %9 = getelementptr inbounds nuw i8, ptr %0, i64 8
  %10 = load double, ptr %9, align 8, !tbaa !180
  %11 = sitofp i32 %1 to double
  %12 = fadd double %11, 5.000000e-01
  %13 = tail call noundef double @llvm.fmuladd.f64(double %12, double %10, double -5.000000e-01)
  %14 = fptosi double %13 to i32
  %15 = sitofp i32 %6 to double
  %16 = fadd double %15, 5.000000e-01
  %17 = tail call noundef double @llvm.fmuladd.f64(double %16, double %10, double -5.000000e-01)
  %18 = fptosi double %17 to i32
  %19 = getelementptr inbounds nuw i8, ptr %0, i64 20
  %20 = load i32, ptr %19, align 4, !tbaa !184
  %21 = sitofp i32 %8 to double
  %22 = fadd double %21, 5.000000e-01
  %23 = tail call noundef double @llvm.fmuladd.f64(double %22, double %10, double -5.000000e-01)
  %24 = tail call double @llvm.ceil.f64(double %23)
  %25 = fadd double %24, 1.000000e+00
  %26 = fptosi double %25 to i32
  %spec.select.i = tail call noundef i32 @llvm.smin.i32(i32 %20, i32 %26)
  %27 = sub nsw i32 %18, %14
  %28 = sub nsw i32 %spec.select.i, %18
  %.sroa.2.0.insert.ext.i = zext i32 %28 to i64
  %.sroa.2.0.insert.shift.i = shl nuw i64 %.sroa.2.0.insert.ext.i, 32
  %.sroa.0.0.insert.ext.i = zext i32 %27 to i64
  %.sroa.0.0.insert.insert.i = or disjoint i64 %.sroa.2.0.insert.shift.i, %.sroa.0.0.insert.ext.i
  ret i64 %.sroa.0.0.insert.insert.i
}